; Function Attrs: mustprogress nofree norecurse nosync nounwind memory(read, argmem: readwrite, inaccessiblemem: none) uwtable
define hidden noundef i32 @_ZN5o3dgc16Arithmetic_Codec6decodeERNS_17Static_Data_ModelE(ptr noundef nonnull align 8 captures(none) dereferenceable(44) %0, ptr noundef nonnull readonly align 8 captures(none) dereferenceable(32) %1) local_unnamed_addr #1 align 2 {
  %3 = getelementptr inbounds nuw i8, ptr %0, i64 32
  %4 = load i32, ptr %3, align 8
  %5 = getelementptr inbounds nuw i8, ptr %1, i64 8
  %6 = load ptr, ptr %5, align 8
  %.not = icmp eq ptr %6, null
  br i1 %.not, label %45, label %7

7:                                                ; preds = %2
  %8 = getelementptr inbounds nuw i8, ptr %0, i64 28
  %9 = load i32, ptr %8, align 4
  %10 = lshr i32 %4, 15
  store i32 %10, ptr %3, align 8
  %11 = udiv i32 %9, %10
  %12 = getelementptr inbounds nuw i8, ptr %1, i64 28
  %13 = load i32, ptr %12, align 4
  %14 = lshr i32 %11, %13
  %15 = load ptr, ptr %5, align 8
  %16 = zext i32 %14 to i64
  %17 = getelementptr inbounds nuw i32, ptr %15, i64 %16
  %18 = load i32, ptr %17, align 4
  %19 = add i32 %14, 1
  %20 = zext i32 %19 to i64
  %21 = getelementptr inbounds nuw i32, ptr %15, i64 %20
  %22 = load i32, ptr %21, align 4
  %23 = add i32 %22, 1
  %24 = add i32 %18, 1
  %25 = icmp ugt i32 %23, %24
  %.pre = load ptr, ptr %1, align 8
  br i1 %25, label %.lr.ph, label %._crit_edge

.lr.ph:                                           ; preds = %7, %.lr.ph
  %.056 = phi i32 [ %..0, %.lr.ph ], [ %23, %7 ]
  %.03855 = phi i32 [ %.038., %.lr.ph ], [ %18, %7 ]
  %26 = add i32 %.056, %.03855
  %27 = lshr i32 %26, 1
  %28 = zext nneg i32 %27 to i64
  %29 = getelementptr inbounds nuw i32, ptr %.pre, i64 %28
  %30 = load i32, ptr %29, align 4
  %31 = icmp ugt i32 %30, %11
  %.038. = select i1 %31, i32 %.03855, i32 %27
  %..0 = select i1 %31, i32 %27, i32 %.056
  %32 = add i32 %.038., 1
  %33 = icmp ugt i32 %..0, %32
  br i1 %33, label %.lr.ph, label %._crit_edge, !llvm.loop !7

._crit_edge:                                      ; preds = %.lr.ph, %7
  %.038.lcssa = phi i32 [ %18, %7 ], [ %.038., %.lr.ph ]
  %.lcssa = phi i32 [ %24, %7 ], [ %32, %.lr.ph ]
  %34 = zext i32 %.038.lcssa to i64
  %35 = getelementptr inbounds nuw i32, ptr %.pre, i64 %34
  %36 = load i32, ptr %35, align 4
  %37 = mul i32 %36, %10
  %38 = getelementptr inbounds nuw i8, ptr %1, i64 20
  %39 = load i32, ptr %38, align 4
  %.not54 = icmp eq i32 %.038.lcssa, %39
  br i1 %.not54, label %.loopexit, label %40

40:                                               ; preds = %._crit_edge
  %41 = zext i32 %.lcssa to i64
  %42 = getelementptr inbounds nuw i32, ptr %.pre, i64 %41
  %43 = load i32, ptr %42, align 4
  %44 = mul i32 %43, %10
  br label %.loopexit

45:                                               ; preds = %2
  %46 = lshr i32 %4, 15
  store i32 %46, ptr %3, align 8
  %47 = getelementptr inbounds nuw i8, ptr %1, i64 16
  %48 = load i32, ptr %47, align 8
  %49 = lshr i32 %48, 1
  %50 = load ptr, ptr %1, align 8
  %51 = getelementptr inbounds nuw i8, ptr %0, i64 28
  %52 = load i32, ptr %51, align 4
  br label %53

53:                                               ; preds = %53, %45
  %.247 = phi i32 [ %4, %45 ], [ %..247, %53 ]
  %.143 = phi i32 [ 0, %45 ], [ %.143., %53 ]
  %.341 = phi i32 [ 0, %45 ], [ %.341..037, %53 ]
  %.037 = phi i32 [ %49, %45 ], [ %60, %53 ]
  %.2 = phi i32 [ %48, %45 ], [ %.037..2, %53 ]
  %54 = zext nneg i32 %.037 to i64
  %55 = getelementptr inbounds nuw i32, ptr %50, i64 %54
  %56 = load i32, ptr %55, align 4
  %57 = mul i32 %56, %46
  %58 = icmp ugt i32 %57, %52
  %..247 = select i1 %58, i32 %57, i32 %.247
  %.143. = select i1 %58, i32 %.143, i32 %57
  %.341..037 = select i1 %58, i32 %.341, i32 %.037
  %.037..2 = select i1 %58, i32 %.037, i32 %.2
  %59 = add i32 %.341..037, %.037..2
  %60 = lshr i32 %59, 1
  %.not53 = icmp eq i32 %60, %.341..037
  br i1 %.not53, label %.loopexit, label %53, !llvm.loop !8

.loopexit:                                        ; preds = %53, %._crit_edge, %40
  %61 = phi i32 [ %9, %40 ], [ %9, %._crit_edge ], [ %52, %53 ]
  %.146 = phi i32 [ %44, %40 ], [ %4, %._crit_edge ], [ %..247, %53 ]
  %.042 = phi i32 [ %37, %40 ], [ %37, %._crit_edge ], [ %.143., %53 ]
  %.240 = phi i32 [ %.038.lcssa, %40 ], [ %.038.lcssa, %._crit_edge ], [ %.341..037, %53 ]
  %62 = getelementptr inbounds nuw i8, ptr %0, i64 28
  %63 = sub i32 %61, %.042
  store i32 %63, ptr %62, align 4
  %64 = sub i32 %.146, %.042
  store i32 %64, ptr %3, align 8
  %65 = icmp ult i32 %64, 16777216
  br i1 %65, label %66, label %_ZN5o3dgc16Arithmetic_Codec19renorm_dec_intervalEv.exit

66:                                               ; preds = %.loopexit
  %67 = getelementptr inbounds nuw i8, ptr %0, i64 16
  %.promoted1.i = load ptr, ptr %67, align 8
  br label %68

68:                                               ; preds = %68, %66
  %69 = phi i32 [ %77, %68 ], [ %64, %66 ]
  %70 = phi ptr [ %73, %68 ], [ %.promoted1.i, %66 ]
  %71 = phi i32 [ %76, %68 ], [ %63, %66 ]
  %72 = shl i32 %71, 8
  %73 = getelementptr inbounds nuw i8, ptr %70, i64 1
  store ptr %73, ptr %67, align 8
  %74 = load i8, ptr %73, align 1
  %75 = zext i8 %74 to i32
  %76 = or disjoint i32 %72, %75
  store i32 %76, ptr %62, align 4
  %77 = shl nuw i32 %69, 8
  store i32 %77, ptr %3, align 8
  %78 = icmp ult i32 %69, 65536
  br i1 %78, label %68, label %_ZN5o3dgc16Arithmetic_Codec19renorm_dec_intervalEv.exit, !llvm.loop !6

_ZN5o3dgc16Arithmetic_Codec19renorm_dec_intervalEv.exit: ; preds = %68, %.loopexit
  ret i32 %.240
}